#include <math.h>
#include <stdio.h>
#include <stdlib.h>
#include <string.h>

void main()
{
	int n,i,j,e;
	int num[100];
	int *q;
	double a[100],s[100],m,t;
	double *p,*ps;
	scanf("%d",&n);
	for(q=num,ps=s;q<num+n;q++,ps++)
	{
		m=0;
		t=0;
		scanf("%d",q);
		for(p=a;p<a+*q;p++)
		{
			scanf("%lf",p);
			m=m+*p;
		}
		m=m/(*q);
		for(p=a;p<a+*q;p++)
			t=t+pow((*p-m),2);
		t=t/(*q);
		*ps=sqrt(t);
	}
	for(ps=s;ps<s+n;ps++)
		printf("%.5lf\n",*ps);
}